Certificate:
    Data:
        Version: 3 (0x2)
        Serial Number: 116 (0x74)
    Signature Algorithm: sha1WithRSAEncryption
        Issuer: C=UA, DC=grid, O=BITP, OU=Education, CN=CAEdu
        Validity
            Not Before: Sep 18 10:44:24 2017 GMT
            Not After : Sep 18 10:44:24 2018 GMT
        Subject: C=UA, O=BITP, OU=Education, CN=Iryna Shchepak
        Subject Public Key Info:
            Public Key Algorithm: rsaEncryption
                Public-Key: (2048 bit)
                Modulus:
                    00:a9:16:c9:9a:02:3a:b4:ff:3c:1f:8b:58:ac:33:
                    8a:89:e6:09:f9:66:7f:7b:3c:51:07:9e:98:48:11:
                    bc:0c:32:46:ff:bd:c0:ee:6d:1d:8a:ee:2b:e8:0b:
                    a3:3a:c2:a1:93:57:5d:30:89:6f:1e:0f:f4:d1:f4:
                    20:1b:4f:73:65:02:86:a5:fa:1b:1d:07:2f:8e:bc:
                    8e:c8:15:89:d9:d7:f9:39:4a:30:88:6c:df:7d:83:
                    4e:00:11:ea:51:79:81:f7:13:8c:f1:e7:d1:6e:77:
                    a2:4e:e0:8a:0a:50:e0:b0:21:0d:cb:e6:ab:1e:ae:
                    81:6a:19:c8:8c:4e:ac:45:7d:c0:38:4f:5a:5f:b2:
                    42:c2:36:39:8e:8b:a2:95:ad:f9:61:f8:f9:73:72:
                    d2:65:00:f1:e7:ed:3a:37:27:33:bf:02:99:f6:59:
                    fd:bc:ca:f4:d3:fe:75:75:90:ff:fc:bd:d3:a7:63:
                    13:2f:19:45:c0:ba:60:f3:6f:3d:ea:e7:23:a3:01:
                    15:bd:6b:77:83:84:57:11:d0:20:f6:96:e9:bc:19:
                    41:bc:43:5e:27:36:73:ab:ff:d6:34:61:a5:12:b0:
                    ca:3f:bf:17:86:f9:07:23:c9:93:71:8d:15:02:68:
                    4a:b3:bf:cc:02:87:94:d3:cc:57:8e:6f:06:02:ab:
                    8b:17
                Exponent: 65537 (0x10001)
        X509v3 extensions:
            Netscape Cert Type: 
                SSL Client, SSL Server, S/MIME, Object Signing
    Signature Algorithm: sha1WithRSAEncryption
         64:e9:4f:be:ab:ab:92:40:87:11:4f:08:ba:05:33:a1:6f:d0:
         d5:7e:2c:ff:55:0e:d4:54:71:cd:d0:ae:da:0a:fd:22:eb:a7:
         50:1d:54:2b:68:88:17:55:fe:0c:ad:54:7e:b8:49:19:1d:16:
         2f:73:73:04:cb:c0:d1:0f:b9:c9:83:ec:ec:a6:52:77:0a:1f:
         34:50:3d:0a:2d:cf:ce:c9:18:b6:c9:60:17:8a:b3:f1:80:21:
         1f:d1:de:53:84:20:5f:13:18:9e:5a:34:30:39:ba:e1:fc:94:
         fa:68:3c:f6:c1:cd:d1:e0:32:c2:50:7d:90:10:de:5b:cf:34:
         c6:16:0e:0f:6c:de:13:15:bf:34:d0:a7:b2:21:97:9b:1a:b4:
         c9:5a:33:8d:1f:58:5c:db:44:81:79:e5:88:59:a8:13:ba:9d:
         fc:0e:f7:11:a1:10:04:67:30:ad:27:b5:4c:41:f2:39:e8:97:
         16:fe:69:a6:16:85:60:ea:67:87:49:ab:59:ae:9d:56:11:d3:
         3e:b3:ce:77:78:7a:1c:07:1b:49:9e:08:ba:64:be:69:28:d7:
         ba:60:ad:0b:18:fd:b3:b3:4b:ce:ea:89:9e:c9:ef:9b:98:bd:
         b4:1a:1e:7a:0e:08:d5:e5:7f:1e:a9:35:60:76:4d:40:30:7b:
         25:b0:ee:c8:5a:75:23:40:1a:0b:d6:4d:25:96:9d:7e:e9:69:
         cd:7f:66:29:ff:c1:47:af:9a:7f:cc:cf:2f:2a:f2:ce:49:2d:
         06:56:1f:55:4c:9d:6d:49:18:79:b8:f4:24:4d:09:b4:84:58:
         3b:6e:53:bf:4e:8f:14:7f:87:e6:fa:5d:c3:9b:c2:bc:ee:01:
         b2:d8:95:ea:f7:50:b5:41:08:b3:79:c9:9c:d9:ee:3f:cc:ea:
         b9:f2:8d:78:dd:9f:73:0b:1d:f4:9e:1a:b7:9a:ab:cb:cb:13:
         bc:d8:f6:88:f3:04:1f:1a:88:5c:34:c1:99:ee:2a:6c:96:6c:
         60:fc:f3:1c:3f:6a:6c:9c:07:1d:1d:87:bd:a6:66:c7:2f:cb:
         39:3c:6a:65:a1:9f:f2:8d:8b:a4:f1:a7:c8:b6:a1:4b:d6:89:
         bf:49:c6:21:8a:92:bf:97:8b:38:97:b3:0f:1a:71:ca:4c:9f:
         08:89:4e:a0:0a:a1:26:37:71:40:6d:ea:8a:1f:6d:9e:29:20:
         0b:f7:eb:90:2a:de:3c:b9:98:89:f1:20:3c:03:5e:f7:ab:ba:
         8a:9b:de:27:c2:5f:6d:2e:b6:b9:73:82:46:0e:6f:40:b0:9c:
         c2:04:cf:73:8f:77:7c:1c:3e:86:ed:c0:86:9f:d3:25:55:85:
         1a:9a:11:b1:06:c5:7e:3f
-----BEGIN CERTIFICATE-----
MIIELzCCAhegAwIBAgIBdDANBgkqhkiG9w0BAQUFADBWMQswCQYDVQQGEwJVQTEU
MBIGCgmSJomT8ixkARkWBGdyaWQxDTALBgNVBAoTBEJJVFAxEjAQBgNVBAsTCUVk
dWNhdGlvbjEOMAwGA1UEAxMFQ0FFZHUwHhcNMTcwOTE4MTA0NDI0WhcNMTgwOTE4
MTA0NDI0WjBJMQswCQYDVQQGEwJVQTENMAsGA1UEChMEQklUUDESMBAGA1UECxMJ
RWR1Y2F0aW9uMRcwFQYDVQQDEw5JcnluYSBTaGNoZXBhazCCASIwDQYJKoZIhvcN
AQEBBQADggEPADCCAQoCggEBAKkWyZoCOrT/PB+LWKwzionmCflmf3s8UQeemEgR
vAwyRv+9wO5tHYruK+gLozrCoZNXXTCJbx4P9NH0IBtPc2UChqX6Gx0HL468jsgV
idnX+TlKMIhs332DTgAR6lF5gfcTjPHn0W53ok7gigpQ4LAhDcvmqx6ugWoZyIxO
rEV9wDhPWl+yQsI2OY6LopWt+WH4+XNy0mUA8eftOjcnM78CmfZZ/bzK9NP+dXWQ
//y906djEy8ZRcC6YPNvPernI6MBFb1rd4OEVxHQIPaW6bwZQbxDXic2c6v/1jRh
pRKwyj+/F4b5ByPJk3GNFQJoSrO/zAKHlNPMV45vBgKrixcCAwEAAaMVMBMwEQYJ
YIZIAYb4QgEBBAQDAgTwMA0GCSqGSIb3DQEBBQUAA4ICAQBk6U++q6uSQIcRTwi6
BTOhb9DVfiz/VQ7UVHHN0K7aCv0i66dQHVQraIgXVf4MrVR+uEkZHRYvc3MEy8DR
D7nJg+zsplJ3Ch80UD0KLc/OyRi2yWAXirPxgCEf0d5ThCBfExieWjQwObrh/JT6
aDz2wc3R4DLCUH2QEN5bzzTGFg4PbN4TFb800KeyIZebGrTJWjONH1hc20SBeeWI
WagTup38DvcRoRAEZzCtJ7VMQfI56JcW/mmmFoVg6meHSatZrp1WEdM+s853eHoc
BxtJngi6ZL5pKNe6YK0LGP2zs0vO6omeye+bmL20Gh56DgjV5X8eqTVgdk1AMHsl
sO7IWnUjQBoL1k0llp1+6WnNf2Yp/8FHr5p/zM8vKvLOSS0GVh9VTJ1tSRh5uPQk
TQm0hFg7blO/To8Uf4fm+l3Dm8K87gGy2JXq91C1QQizecmc2e4/zOq58o143Z9z
Cx30nhq3mqvLyxO82PaI8wQfGohcNMGZ7ipslmxg/PMcP2psnAcdHYe9pmbHL8s5
PGploZ/yjYuk8afItqFL1om/ScYhipK/l4s4l7MPGnHKTJ8IiU6gCqEmN3FAbeqK
H22eKSAL9+uQKt48uZiJ8SA8A173q7qKm94nwl9tLra5c4JGDm9AsJzCBM9zj3d8
HD6G7cCGn9MlVYUamhGxBsV+Pw==
-----END CERTIFICATE-----
